Certificate:
    Data:
        Version: 3 (0x2)
        Serial Number: 2 (0x2)
    Signature Algorithm: sha256WithRSAEncryption
        Issuer: C=GB, ST=Leicestershire, L=Loughborough, O=Colin-VPN, OU=MyOrganizationalUnit, CN=Colin-VPN CA/name=EasyRSA/emailAddress=scouly@outlook.com
        Validity
            Not Before: Oct  7 12:14:39 2017 GMT
            Not After : Oct  5 12:14:39 2027 GMT
        Subject: C=GB, ST=Leicestershire, L=Loughborough, O=Colin-VPN, OU=MyOrganizationalUnit, CN=client/name=EasyRSA/emailAddress=scouly@outlook.com
        Subject Public Key Info:
            Public Key Algorithm: rsaEncryption
                Public-Key: (2048 bit)
                Modulus:
                    00:ed:8a:37:51:c0:48:af:6f:8d:3d:91:a5:3c:fe:
                    b8:61:16:3e:fd:2c:8d:41:1b:42:c0:d2:e3:6a:3b:
                    ff:2e:66:7e:68:9e:f3:55:92:fb:b1:f3:c6:79:92:
                    ee:9d:be:bb:69:a4:55:61:80:8a:d1:ca:76:40:9d:
                    4d:16:49:68:7a:e4:c1:85:34:ca:9e:70:94:33:38:
                    81:e9:eb:f3:91:b1:ca:a1:84:70:f9:6c:e4:81:58:
                    2d:aa:aa:6b:04:86:ab:cb:c1:bf:b7:3b:4e:b2:30:
                    3e:da:f1:77:67:12:bb:6f:90:d2:71:d3:d0:af:50:
                    87:1e:35:45:50:43:14:39:0d:b2:80:fe:b7:75:64:
                    83:ac:8c:ed:1f:25:98:2b:d1:fa:d3:97:06:90:fb:
                    05:a8:39:61:d5:d1:83:50:99:12:cb:c6:43:c1:4b:
                    c2:4d:e1:d9:bb:0b:87:bc:6b:5f:5e:90:14:c3:84:
                    d8:c2:02:bf:a1:11:e1:0f:05:18:08:3f:2a:7e:04:
                    d5:fd:f0:71:1b:49:10:5b:82:a6:c7:81:3a:32:99:
                    d4:45:63:66:dc:d9:e0:17:81:9f:d5:b6:f8:21:9e:
                    a5:f5:30:e0:37:2a:ef:c0:80:05:b6:2c:10:65:0c:
                    b6:8e:56:02:77:d3:dd:5b:d6:41:57:70:8e:66:85:
                    82:57
                Exponent: 65537 (0x10001)
        X509v3 extensions:
            X509v3 Basic Constraints: 
                CA:FALSE
            Netscape Comment: 
                Easy-RSA Generated Certificate
            X509v3 Subject Key Identifier: 
                47:B9:8C:62:C7:E6:1D:AB:E6:4B:F9:59:E9:2A:77:FF:75:4F:51:56
            X509v3 Authority Key Identifier: 
                keyid:5C:E4:64:FE:C2:63:11:76:1A:94:E0:82:EB:21:E6:C7:EA:E9:7D:AC
                DirName:/C=GB/ST=Leicestershire/L=Loughborough/O=Colin-VPN/OU=MyOrganizationalUnit/CN=Colin-VPN CA/name=EasyRSA/emailAddress=scouly@outlook.com
                serial:91:7C:A8:3E:66:AA:AC:1A

            X509v3 Extended Key Usage: 
                TLS Web Client Authentication
            X509v3 Key Usage: 
                Digital Signature
            X509v3 Subject Alternative Name: 
                DNS:client
    Signature Algorithm: sha256WithRSAEncryption
         68:4d:61:59:2b:62:39:9d:61:b4:d5:e8:38:96:69:b1:24:e4:
         7d:ce:ae:d8:77:bc:c2:2c:d6:35:f5:93:88:a4:ac:e2:43:f8:
         ca:e8:6c:7c:c1:ac:8c:7e:e1:fe:43:27:25:9d:9a:8f:94:53:
         26:93:9b:d5:34:2f:b9:32:41:70:73:99:c4:38:e6:bb:fc:a6:
         12:49:cc:bc:40:1b:8a:ae:4e:09:a2:32:95:6d:f6:9d:05:38:
         08:6a:0b:cb:89:98:58:55:b7:8a:13:ee:ab:6f:2f:4e:d9:8d:
         3c:27:63:9e:61:4b:6a:9b:71:57:4c:4b:41:75:ab:b6:e5:dc:
         79:2c:d5:0c:00:bb:c6:bf:0a:ec:17:f4:1f:e9:1b:4d:49:76:
         c2:f9:a6:bf:ca:f3:66:83:69:86:93:52:bb:64:cd:8d:f5:51:
         dd:3a:2e:d8:53:35:7d:41:8e:44:e4:60:c1:94:80:ff:1d:a8:
         ec:a0:c7:4e:b5:e7:fe:90:bc:d8:3a:c3:e6:9e:21:28:05:06:
         b0:84:63:21:30:d8:db:c1:4e:90:44:56:6e:b2:bb:cc:1d:35:
         c1:eb:b7:7e:76:7d:c3:3e:e8:28:7f:8a:68:78:8b:b0:27:6b:
         69:19:d5:1c:f4:cf:ec:8d:7b:73:b8:c7:b9:d7:41:f8:75:f2:
         19:29:46:62
-----BEGIN CERTIFICATE-----
MIIFdzCCBF+gAwIBAgIBAjANBgkqhkiG9w0BAQsFADCBvDELMAkGA1UEBhMCR0Ix
FzAVBgNVBAgTDkxlaWNlc3RlcnNoaXJlMRUwEwYDVQQHEwxMb3VnaGJvcm91Z2gx
EjAQBgNVBAoTCUNvbGluLVZQTjEdMBsGA1UECxMUTXlPcmdhbml6YXRpb25hbFVu
aXQxFTATBgNVBAMTDENvbGluLVZQTiBDQTEQMA4GA1UEKRMHRWFzeVJTQTEhMB8G
CSqGSIb3DQEJARYSc2NvdWx5QG91dGxvb2suY29tMB4XDTE3MTAwNzEyMTQzOVoX
DTI3MTAwNTEyMTQzOVowgbYxCzAJBgNVBAYTAkdCMRcwFQYDVQQIEw5MZWljZXN0
ZXJzaGlyZTEVMBMGA1UEBxMMTG91Z2hib3JvdWdoMRIwEAYDVQQKEwlDb2xpbi1W
UE4xHTAbBgNVBAsTFE15T3JnYW5pemF0aW9uYWxVbml0MQ8wDQYDVQQDEwZjbGll
bnQxEDAOBgNVBCkTB0Vhc3lSU0ExITAfBgkqhkiG9w0BCQEWEnNjb3VseUBvdXRs
b29rLmNvbTCCASIwDQYJKoZIhvcNAQEBBQADggEPADCCAQoCggEBAO2KN1HASK9v
jT2RpTz+uGEWPv0sjUEbQsDS42o7/y5mfmie81WS+7HzxnmS7p2+u2mkVWGAitHK
dkCdTRZJaHrkwYU0yp5wlDM4genr85GxyqGEcPls5IFYLaqqawSGq8vBv7c7TrIw
Ptrxd2cSu2+Q0nHT0K9Qhx41RVBDFDkNsoD+t3Vkg6yM7R8lmCvR+tOXBpD7Bag5
YdXRg1CZEsvGQ8FLwk3h2bsLh7xrX16QFMOE2MICv6ER4Q8FGAg/Kn4E1f3wcRtJ
EFuCpseBOjKZ1EVjZtzZ4BeBn9W2+CGepfUw4Dcq78CABbYsEGUMto5WAnfT3VvW
QVdwjmaFglcCAwEAAaOCAYYwggGCMAkGA1UdEwQCMAAwLQYJYIZIAYb4QgENBCAW
HkVhc3ktUlNBIEdlbmVyYXRlZCBDZXJ0aWZpY2F0ZTAdBgNVHQ4EFgQUR7mMYsfm
HavmS/lZ6Sp3/3VPUVYwgfEGA1UdIwSB6TCB5oAUXORk/sJjEXYalOCC6yHmx+rp
fayhgcKkgb8wgbwxCzAJBgNVBAYTAkdCMRcwFQYDVQQIEw5MZWljZXN0ZXJzaGly
ZTEVMBMGA1UEBxMMTG91Z2hib3JvdWdoMRIwEAYDVQQKEwlDb2xpbi1WUE4xHTAb
BgNVBAsTFE15T3JnYW5pemF0aW9uYWxVbml0MRUwEwYDVQQDEwxDb2xpbi1WUE4g
Q0ExEDAOBgNVBCkTB0Vhc3lSU0ExITAfBgkqhkiG9w0BCQEWEnNjb3VseUBvdXRs
b29rLmNvbYIJAJF8qD5mqqwaMBMGA1UdJQQMMAoGCCsGAQUFBwMCMAsGA1UdDwQE
AwIHgDARBgNVHREECjAIggZjbGllbnQwDQYJKoZIhvcNAQELBQADggEBAGhNYVkr
YjmdYbTV6DiWabEk5H3Orth3vMIs1jX1k4ikrOJD+MrobHzBrIx+4f5DJyWdmo+U
UyaTm9U0L7kyQXBzmcQ45rv8phJJzLxAG4quTgmiMpVt9p0FOAhqC8uJmFhVt4oT
7qtvL07ZjTwnY55hS2qbcVdMS0F1q7bl3Hks1QwAu8a/CuwX9B/pG01JdsL5pr/K
82aDaYaTUrtkzY31Ud06LthTNX1BjkTkYMGUgP8dqOygx0615/6QvNg6w+aeISgF
BrCEYyEw2NvBTpBEVm6yu8wdNcHrt352fcM+6Ch/imh4i7Ana2kZ1Rz0z+yNe3O4
x7nXQfh18hkpRmI=
-----END CERTIFICATE-----
