Certificate:
    Data:
        Version: 3 (0x2)
        Serial Number: 1 (0x1)
    Signature Algorithm: sha256WithRSAEncryption
        Issuer: C=GB, ST=Leicestershire, L=Loughborough, O=Colin-VPN, OU=MyOrganizationalUnit, CN=Colin-VPN CA/name=EasyRSA/emailAddress=scouly@outlook.com
        Validity
            Not Before: Oct  7 11:59:58 2017 GMT
            Not After : Oct  5 11:59:58 2027 GMT
        Subject: C=GB, ST=Leicestershire, L=Loughborough, O=Colin-VPN, OU=MyOrganizationalUnit, CN=server/name=EasyRSA/emailAddress=scouly@outlook.com
        Subject Public Key Info:
            Public Key Algorithm: rsaEncryption
                Public-Key: (2048 bit)
                Modulus:
                    00:c3:d1:53:18:94:ed:83:3e:c5:66:26:80:46:4c:
                    ef:40:19:56:c4:b0:5a:b5:70:5e:b2:2a:f0:b4:52:
                    f4:57:92:67:6b:b9:69:ac:a6:d7:ec:d8:9e:23:09:
                    aa:38:d0:09:c0:d8:f4:a9:9c:bf:9b:a3:58:20:ed:
                    ab:a9:91:ea:17:ae:42:54:be:32:b5:6a:6a:f0:f2:
                    c3:9a:c8:ca:73:bc:07:00:d6:4c:d7:24:6c:e0:b5:
                    b9:31:2e:2d:87:26:b8:80:83:f5:52:95:41:10:27:
                    2b:8a:a9:51:5e:82:7f:a9:9f:89:7e:be:aa:6a:b2:
                    1e:54:db:91:fc:6a:92:a3:3a:23:36:17:af:a2:73:
                    f1:30:d1:1f:53:ba:81:e5:6a:d5:c5:49:a5:7b:de:
                    2c:84:09:99:75:10:b6:de:44:bb:91:e2:24:b5:b1:
                    d3:6a:dc:1e:58:56:40:77:1b:05:98:65:b1:96:25:
                    9a:a3:6d:3f:4f:2a:d5:97:39:20:ef:45:b5:1b:57:
                    1d:e3:34:79:9e:40:9f:dd:bd:b2:9b:8c:d4:a4:2a:
                    05:25:62:50:be:5c:51:21:f2:7c:3f:04:11:42:9d:
                    b6:96:6f:6b:8a:0d:f2:7d:c3:1f:00:9b:68:62:cb:
                    73:7e:b2:87:d0:c8:c7:77:50:81:b9:a7:87:60:fd:
                    b7:ff
                Exponent: 65537 (0x10001)
        X509v3 extensions:
            X509v3 Basic Constraints: 
                CA:FALSE
            Netscape Cert Type: 
                SSL Server
            Netscape Comment: 
                Easy-RSA Generated Server Certificate
            X509v3 Subject Key Identifier: 
                D6:52:A6:7E:EE:81:B7:73:E3:85:8B:D5:F8:B6:7C:B1:CB:F9:98:48
            X509v3 Authority Key Identifier: 
                keyid:5C:E4:64:FE:C2:63:11:76:1A:94:E0:82:EB:21:E6:C7:EA:E9:7D:AC
                DirName:/C=GB/ST=Leicestershire/L=Loughborough/O=Colin-VPN/OU=MyOrganizationalUnit/CN=Colin-VPN CA/name=EasyRSA/emailAddress=scouly@outlook.com
                serial:91:7C:A8:3E:66:AA:AC:1A

            X509v3 Extended Key Usage: 
                TLS Web Server Authentication
            X509v3 Key Usage: 
                Digital Signature, Key Encipherment
            X509v3 Subject Alternative Name: 
                DNS:server
    Signature Algorithm: sha256WithRSAEncryption
         40:7c:d8:cc:90:1e:68:48:cb:48:da:96:16:86:99:d8:85:4b:
         73:45:87:e1:93:36:39:b7:72:7c:82:ba:cd:1f:19:03:d2:09:
         14:3c:34:73:c9:bb:0e:a1:72:3d:60:af:14:68:56:64:90:91:
         49:c9:46:0d:23:1a:bc:9e:8e:4f:e5:74:30:6f:bc:83:b2:90:
         51:d0:9a:98:42:0c:ff:5f:9f:28:57:75:60:1b:af:c9:c9:66:
         d5:76:1a:b1:bc:a0:88:a5:dd:c0:94:bc:c6:94:7b:c1:c9:86:
         31:8a:bf:0a:ad:e9:bb:61:77:b3:c3:05:51:1b:d9:8f:20:07:
         0e:26:f5:78:ec:fd:6d:33:e4:b6:df:48:16:ea:5d:d1:77:91:
         0d:b5:62:03:bb:5d:b9:1a:89:cf:b6:ad:06:68:21:c9:f2:c0:
         1c:7b:da:5e:16:cd:8d:59:ce:04:39:f1:75:65:31:ba:78:9b:
         78:f6:c9:5b:71:14:69:af:55:e4:99:8f:ae:ce:5a:03:e9:2e:
         07:24:a6:8e:10:d5:4f:ab:a3:60:2e:4d:99:f3:66:24:63:b8:
         a5:80:75:78:72:1f:e6:24:56:43:03:4e:d5:c7:fa:e3:9c:16:
         e0:ce:ac:17:c6:42:68:b8:99:9e:fe:62:16:33:d5:92:82:fc:
         20:07:5e:3c
-----BEGIN CERTIFICATE-----
MIIFkTCCBHmgAwIBAgIBATANBgkqhkiG9w0BAQsFADCBvDELMAkGA1UEBhMCR0Ix
FzAVBgNVBAgTDkxlaWNlc3RlcnNoaXJlMRUwEwYDVQQHEwxMb3VnaGJvcm91Z2gx
EjAQBgNVBAoTCUNvbGluLVZQTjEdMBsGA1UECxMUTXlPcmdhbml6YXRpb25hbFVu
aXQxFTATBgNVBAMTDENvbGluLVZQTiBDQTEQMA4GA1UEKRMHRWFzeVJTQTEhMB8G
CSqGSIb3DQEJARYSc2NvdWx5QG91dGxvb2suY29tMB4XDTE3MTAwNzExNTk1OFoX
DTI3MTAwNTExNTk1OFowgbYxCzAJBgNVBAYTAkdCMRcwFQYDVQQIEw5MZWljZXN0
ZXJzaGlyZTEVMBMGA1UEBxMMTG91Z2hib3JvdWdoMRIwEAYDVQQKEwlDb2xpbi1W
UE4xHTAbBgNVBAsTFE15T3JnYW5pemF0aW9uYWxVbml0MQ8wDQYDVQQDEwZzZXJ2
ZXIxEDAOBgNVBCkTB0Vhc3lSU0ExITAfBgkqhkiG9w0BCQEWEnNjb3VseUBvdXRs
b29rLmNvbTCCASIwDQYJKoZIhvcNAQEBBQADggEPADCCAQoCggEBAMPRUxiU7YM+
xWYmgEZM70AZVsSwWrVwXrIq8LRS9FeSZ2u5aaym1+zYniMJqjjQCcDY9Kmcv5uj
WCDtq6mR6heuQlS+MrVqavDyw5rIynO8BwDWTNckbOC1uTEuLYcmuICD9VKVQRAn
K4qpUV6Cf6mfiX6+qmqyHlTbkfxqkqM6IzYXr6Jz8TDRH1O6geVq1cVJpXveLIQJ
mXUQtt5Eu5HiJLWx02rcHlhWQHcbBZhlsZYlmqNtP08q1Zc5IO9FtRtXHeM0eZ5A
n929spuM1KQqBSViUL5cUSHyfD8EEUKdtpZva4oN8n3DHwCbaGLLc36yh9DIx3dQ
gbmnh2D9t/8CAwEAAaOCAaAwggGcMAkGA1UdEwQCMAAwEQYJYIZIAYb4QgEBBAQD
AgZAMDQGCWCGSAGG+EIBDQQnFiVFYXN5LVJTQSBHZW5lcmF0ZWQgU2VydmVyIENl
cnRpZmljYXRlMB0GA1UdDgQWBBTWUqZ+7oG3c+OFi9X4tnyxy/mYSDCB8QYDVR0j
BIHpMIHmgBRc5GT+wmMRdhqU4ILrIebH6ul9rKGBwqSBvzCBvDELMAkGA1UEBhMC
R0IxFzAVBgNVBAgTDkxlaWNlc3RlcnNoaXJlMRUwEwYDVQQHEwxMb3VnaGJvcm91
Z2gxEjAQBgNVBAoTCUNvbGluLVZQTjEdMBsGA1UECxMUTXlPcmdhbml6YXRpb25h
bFVuaXQxFTATBgNVBAMTDENvbGluLVZQTiBDQTEQMA4GA1UEKRMHRWFzeVJTQTEh
MB8GCSqGSIb3DQEJARYSc2NvdWx5QG91dGxvb2suY29tggkAkXyoPmaqrBowEwYD
VR0lBAwwCgYIKwYBBQUHAwEwCwYDVR0PBAQDAgWgMBEGA1UdEQQKMAiCBnNlcnZl
cjANBgkqhkiG9w0BAQsFAAOCAQEAQHzYzJAeaEjLSNqWFoaZ2IVLc0WH4ZM2Obdy
fIK6zR8ZA9IJFDw0c8m7DqFyPWCvFGhWZJCRSclGDSMavJ6OT+V0MG+8g7KQUdCa
mEIM/1+fKFd1YBuvyclm1XYasbygiKXdwJS8xpR7wcmGMYq/Cq3pu2F3s8MFURvZ
jyAHDib1eOz9bTPktt9IFupd0XeRDbViA7tduRqJz7atBmghyfLAHHvaXhbNjVnO
BDnxdWUxunibePbJW3EUaa9V5JmPrs5aA+kuBySmjhDVT6ujYC5NmfNmJGO4pYB1
eHIf5iRWQwNO1cf645wW4M6sF8ZCaLiZnv5iFjPVkoL8IAdePA==
-----END CERTIFICATE-----
